; Function Attrs: mustprogress uwtable
define hidden void @_ZN14pdatatype_decl8finalizeER13pdecl_manager(ptr noundef nonnull align 8 dereferenceable(64) %this, ptr noundef nonnull align 8 dereferenceable(192) %m) unnamed_addr #3 align 2 {
entry:
  %m_constructors = getelementptr inbounds i8, ptr %this, i64 48
  %0 = load ptr, ptr %m_constructors, align 8
  %cmp.i = icmp eq ptr %0, null
  br i1 %cmp.i, label %_ZN13pdecl_manager12lazy_dec_refI17pconstructor_declEEvjPKPT_.exit, label %_ZNK6vectorIP17pconstructor_declLb0EjE4sizeEv.exit

_ZNK6vectorIP17pconstructor_declLb0EjE4sizeEv.exit: ; preds = %entry
  %arrayidx.i = getelementptr inbounds i8, ptr %0, i64 -4
  %1 = load i32, ptr %arrayidx.i, align 4
  %cmp3.not.i = icmp eq i32 %1, 0
  br i1 %cmp3.not.i, label %_ZN13pdecl_manager12lazy_dec_refI17pconstructor_declEEvjPKPT_.exit, label %for.body.lr.ph.i

for.body.lr.ph.i:                                 ; preds = %_ZNK6vectorIP17pconstructor_declLb0EjE4sizeEv.exit
  %m_to_delete.i.i = getelementptr inbounds i8, ptr %m, i64 80
  %wide.trip.count.i = zext i32 %1 to i64
  br label %for.body.i

for.body.i:                                       ; preds = %_ZN13pdecl_manager12lazy_dec_refEP5pdecl.exit.i, %for.body.lr.ph.i
  %indvars.iv.i = phi i64 [ 0, %for.body.lr.ph.i ], [ %indvars.iv.next.i, %_ZN13pdecl_manager12lazy_dec_refEP5pdecl.exit.i ]
  %arrayidx.i2 = getelementptr inbounds ptr, ptr %0, i64 %indvars.iv.i
  %2 = load ptr, ptr %arrayidx.i2, align 8
  %m_ref_count.i.i.i = getelementptr inbounds i8, ptr %2, i64 16
  %3 = load i32, ptr %m_ref_count.i.i.i, align 8
  %dec.i.i.i = add i32 %3, -1
  store i32 %dec.i.i.i, ptr %m_ref_count.i.i.i, align 8
  %cmp.i.i = icmp eq i32 %dec.i.i.i, 0
  br i1 %cmp.i.i, label %if.then.i.i, label %_ZN13pdecl_manager12lazy_dec_refEP5pdecl.exit.i

if.then.i.i:                                      ; preds = %for.body.i
  %4 = load ptr, ptr %m_to_delete.i.i, align 8
  %cmp.i.i.i = icmp eq ptr %4, null
  br i1 %cmp.i.i.i, label %if.then.i.i.i, label %lor.lhs.false.i.i.i

lor.lhs.false.i.i.i:                              ; preds = %if.then.i.i
  %arrayidx.i.i.i = getelementptr inbounds i8, ptr %4, i64 -4
  %5 = load i32, ptr %arrayidx.i.i.i, align 4
  %arrayidx4.i.i.i = getelementptr inbounds i8, ptr %4, i64 -8
  %6 = load i32, ptr %arrayidx4.i.i.i, align 4
  %cmp5.i.i.i = icmp eq i32 %5, %6
  br i1 %cmp5.i.i.i, label %if.then.i.i.i, label %_ZN6vectorIP5pdeclLb0EjE9push_backERKS1_.exit.i.i

if.then.i.i.i:                                    ; preds = %lor.lhs.false.i.i.i, %if.then.i.i
  tail call void @_ZN6vectorIP5pdeclLb0EjE13expand_vectorEv(ptr noundef nonnull align 8 dereferenceable(8) %m_to_delete.i.i)
  %.pre.i.i.i = load ptr, ptr %m_to_delete.i.i, align 8
  %arrayidx8.phi.trans.insert.i.i.i = getelementptr inbounds i8, ptr %.pre.i.i.i, i64 -4
  %.pre1.i.i.i = load i32, ptr %arrayidx8.phi.trans.insert.i.i.i, align 4
  br label %_ZN6vectorIP5pdeclLb0EjE9push_backERKS1_.exit.i.i

_ZN6vectorIP5pdeclLb0EjE9push_backERKS1_.exit.i.i: ; preds = %if.then.i.i.i, %lor.lhs.false.i.i.i
  %7 = phi i32 [ %.pre1.i.i.i, %if.then.i.i.i ], [ %5, %lor.lhs.false.i.i.i ]
  %8 = phi ptr [ %.pre.i.i.i, %if.then.i.i.i ], [ %4, %lor.lhs.false.i.i.i ]
  %idx.ext.i.i.i = zext i32 %7 to i64
  %add.ptr.i.i.i = getelementptr inbounds ptr, ptr %8, i64 %idx.ext.i.i.i
  store ptr %2, ptr %add.ptr.i.i.i, align 8
  %9 = load ptr, ptr %m_to_delete.i.i, align 8
  %arrayidx10.i.i.i = getelementptr inbounds i8, ptr %9, i64 -4
  %10 = load i32, ptr %arrayidx10.i.i.i, align 4
  %inc.i.i.i = add i32 %10, 1
  store i32 %inc.i.i.i, ptr %arrayidx10.i.i.i, align 4
  br label %_ZN13pdecl_manager12lazy_dec_refEP5pdecl.exit.i

_ZN13pdecl_manager12lazy_dec_refEP5pdecl.exit.i:  ; preds = %_ZN6vectorIP5pdeclLb0EjE9push_backERKS1_.exit.i.i, %for.body.i
  %indvars.iv.next.i = add nuw nsw i64 %indvars.iv.i, 1
  %exitcond.not.i = icmp eq i64 %indvars.iv.next.i, %wide.trip.count.i
  br i1 %exitcond.not.i, label %_ZN13pdecl_manager12lazy_dec_refI17pconstructor_declEEvjPKPT_.exit, label %for.body.i, !llvm.loop !31

_ZN13pdecl_manager12lazy_dec_refI17pconstructor_declEEvjPKPT_.exit: ; preds = %_ZN13pdecl_manager12lazy_dec_refEP5pdecl.exit.i, %entry, %_ZNK6vectorIP17pconstructor_declLb0EjE4sizeEv.exit
  %vtable.i = load ptr, ptr %this, align 8
  %vfn.i = getelementptr inbounds i8, ptr %vtable.i, i64 56
  %11 = load ptr, ptr %vfn.i, align 8
  tail call void %11(ptr noundef nonnull align 8 dereferenceable(48) %this, ptr noundef nonnull align 8 dereferenceable(192) %m)
  ret void
}